; ModuleID = '2/1174.c'
source_filename = "2/1174.c"
target datalayout = "e-m:e-p270:32:32-p271:32:32-p272:64:64-i64:64-f80:128-n8:16:32:64-S128"
target triple = "x86_64-pc-linux-gnu"

%struct.book = type { i32, [27 x i8], %struct.book* }

@.str = private unnamed_addr constant [3 x i8] c"%d\00", align 1
@.str.1 = private unnamed_addr constant [6 x i8] c"%d %s\00", align 1
@.str.2 = private unnamed_addr constant [4 x i8] c"%c\0A\00", align 1
@.str.3 = private unnamed_addr constant [4 x i8] c"%d\0A\00", align 1

; Function Attrs: noinline nounwind uwtable
define dso_local void @main() #0 {
  %1 = alloca i32, align 4
  %2 = alloca i32, align 4
  %3 = alloca i32, align 4
  %4 = alloca i32, align 4
  %5 = alloca [26 x i32], align 16
  %6 = alloca i32, align 4
  %7 = alloca i8, align 1
  %8 = alloca %struct.book*, align 8
  %9 = alloca %struct.book*, align 8
  %10 = alloca %struct.book*, align 8
  store i32 0, i32* %6, align 4
  store i32 0, i32* %3, align 4
  br label %11

11:                                               ; preds = %18, %0
  %12 = load i32, i32* %3, align 4
  %13 = icmp slt i32 %12, 26
  br i1 %13, label %14, label %21

14:                                               ; preds = %11
  %15 = load i32, i32* %3, align 4
  %16 = sext i32 %15 to i64
  %17 = getelementptr inbounds [26 x i32], [26 x i32]* %5, i64 0, i64 %16
  store i32 0, i32* %17, align 4
  br label %18

18:                                               ; preds = %14
  %19 = load i32, i32* %3, align 4
  %20 = add nsw i32 %19, 1
  store i32 %20, i32* %3, align 4
  br label %11

21:                                               ; preds = %11
  %22 = call i32 (i8*, ...) @__isoc99_scanf(i8* getelementptr inbounds ([3 x i8], [3 x i8]* @.str, i64 0, i64 0), i32* %1)
  store %struct.book* null, %struct.book** %8, align 8
  store i32 0, i32* %2, align 4
  br label %23

23:                                               ; preds = %78, %21
  %24 = load i32, i32* %2, align 4
  %25 = load i32, i32* %1, align 4
  %26 = icmp slt i32 %24, %25
  br i1 %26, label %27, label %81

27:                                               ; preds = %23
  %28 = call noalias i8* @malloc(i64 40) #3
  %29 = bitcast i8* %28 to %struct.book*
  store %struct.book* %29, %struct.book** %9, align 8
  %30 = load %struct.book*, %struct.book** %9, align 8
  %31 = getelementptr inbounds %struct.book, %struct.book* %30, i32 0, i32 0
  %32 = load %struct.book*, %struct.book** %9, align 8
  %33 = getelementptr inbounds %struct.book, %struct.book* %32, i32 0, i32 1
  %34 = getelementptr inbounds [27 x i8], [27 x i8]* %33, i64 0, i64 0
  %35 = call i32 (i8*, ...) @__isoc99_scanf(i8* getelementptr inbounds ([6 x i8], [6 x i8]* @.str.1, i64 0, i64 0), i32* %31, i8* %34)
  store i32 0, i32* %3, align 4
  br label %36

36:                                               ; preds = %59, %27
  %37 = load %struct.book*, %struct.book** %9, align 8
  %38 = getelementptr inbounds %struct.book, %struct.book* %37, i32 0, i32 1
  %39 = load i32, i32* %3, align 4
  %40 = sext i32 %39 to i64
  %41 = getelementptr inbounds [27 x i8], [27 x i8]* %38, i64 0, i64 %40
  %42 = load i8, i8* %41, align 1
  %43 = sext i8 %42 to i32
  %44 = icmp ne i32 %43, 0
  br i1 %44, label %45, label %62

45:                                               ; preds = %36
  %46 = load %struct.book*, %struct.book** %9, align 8
  %47 = getelementptr inbounds %struct.book, %struct.book* %46, i32 0, i32 1
  %48 = load i32, i32* %3, align 4
  %49 = sext i32 %48 to i64
  %50 = getelementptr inbounds [27 x i8], [27 x i8]* %47, i64 0, i64 %49
  %51 = load i8, i8* %50, align 1
  %52 = sext i8 %51 to i32
  %53 = sub nsw i32 %52, 65
  store i32 %53, i32* %4, align 4
  %54 = load i32, i32* %4, align 4
  %55 = sext i32 %54 to i64
  %56 = getelementptr inbounds [26 x i32], [26 x i32]* %5, i64 0, i64 %55
  %57 = load i32, i32* %56, align 4
  %58 = add nsw i32 %57, 1
  store i32 %58, i32* %56, align 4
  br label %59

59:                                               ; preds = %45
  %60 = load i32, i32* %3, align 4
  %61 = add nsw i32 %60, 1
  store i32 %61, i32* %3, align 4
  br label %36

62:                                               ; preds = %36
  %63 = load %struct.book*, %struct.book** %8, align 8
  %64 = icmp eq %struct.book* %63, null
  br i1 %64, label %65, label %70

65:                                               ; preds = %62
  %66 = load %struct.book*, %struct.book** %9, align 8
  store %struct.book* %66, %struct.book** %8, align 8
  %67 = load %struct.book*, %struct.book** %9, align 8
  store %struct.book* %67, %struct.book** %10, align 8
  %68 = load %struct.book*, %struct.book** %10, align 8
  %69 = getelementptr inbounds %struct.book, %struct.book* %68, i32 0, i32 2
  store %struct.book* null, %struct.book** %69, align 8
  br label %77

70:                                               ; preds = %62
  %71 = load %struct.book*, %struct.book** %9, align 8
  %72 = load %struct.book*, %struct.book** %10, align 8
  %73 = getelementptr inbounds %struct.book, %struct.book* %72, i32 0, i32 2
  store %struct.book* %71, %struct.book** %73, align 8
  %74 = load %struct.book*, %struct.book** %9, align 8
  store %struct.book* %74, %struct.book** %10, align 8
  %75 = load %struct.book*, %struct.book** %10, align 8
  %76 = getelementptr inbounds %struct.book, %struct.book* %75, i32 0, i32 2
  store %struct.book* null, %struct.book** %76, align 8
  br label %77

77:                                               ; preds = %70, %65
  br label %78

78:                                               ; preds = %77
  %79 = load i32, i32* %2, align 4
  %80 = add nsw i32 %79, 1
  store i32 %80, i32* %2, align 4
  br label %23

81:                                               ; preds = %23
  store i32 0, i32* %3, align 4
  br label %82

82:                                               ; preds = %99, %81
  %83 = load i32, i32* %3, align 4
  %84 = icmp slt i32 %83, 26
  br i1 %84, label %85, label %102

85:                                               ; preds = %82
  %86 = load i32, i32* %3, align 4
  %87 = sext i32 %86 to i64
  %88 = getelementptr inbounds [26 x i32], [26 x i32]* %5, i64 0, i64 %87
  %89 = load i32, i32* %88, align 4
  %90 = load i32, i32* %6, align 4
  %91 = icmp sgt i32 %89, %90
  br i1 %91, label %92, label %98

92:                                               ; preds = %85
  %93 = load i32, i32* %3, align 4
  %94 = sext i32 %93 to i64
  %95 = getelementptr inbounds [26 x i32], [26 x i32]* %5, i64 0, i64 %94
  %96 = load i32, i32* %95, align 4
  store i32 %96, i32* %6, align 4
  %97 = load i32, i32* %3, align 4
  store i32 %97, i32* %4, align 4
  br label %98

98:                                               ; preds = %92, %85
  br label %99

99:                                               ; preds = %98
  %100 = load i32, i32* %3, align 4
  %101 = add nsw i32 %100, 1
  store i32 %101, i32* %3, align 4
  br label %82

102:                                              ; preds = %82
  %103 = load i32, i32* %4, align 4
  %104 = add nsw i32 65, %103
  %105 = trunc i32 %104 to i8
  store i8 %105, i8* %7, align 1
  %106 = load i8, i8* %7, align 1
  %107 = sext i8 %106 to i32
  %108 = call i32 (i8*, ...) @printf(i8* getelementptr inbounds ([4 x i8], [4 x i8]* @.str.2, i64 0, i64 0), i32 %107)
  %109 = load i32, i32* %6, align 4
  %110 = call i32 (i8*, ...) @printf(i8* getelementptr inbounds ([4 x i8], [4 x i8]* @.str.3, i64 0, i64 0), i32 %109)
  %111 = load %struct.book*, %struct.book** %8, align 8
  store %struct.book* %111, %struct.book** %9, align 8
  br label %112

112:                                              ; preds = %145, %102
  %113 = load %struct.book*, %struct.book** %9, align 8
  %114 = icmp ne %struct.book* %113, null
  br i1 %114, label %115, label %149

115:                                              ; preds = %112
  store i32 0, i32* %3, align 4
  br label %116

116:                                              ; preds = %142, %115
  %117 = load %struct.book*, %struct.book** %9, align 8
  %118 = getelementptr inbounds %struct.book, %struct.book* %117, i32 0, i32 1
  %119 = load i32, i32* %3, align 4
  %120 = sext i32 %119 to i64
  %121 = getelementptr inbounds [27 x i8], [27 x i8]* %118, i64 0, i64 %120
  %122 = load i8, i8* %121, align 1
  %123 = sext i8 %122 to i32
  %124 = icmp ne i32 %123, 0
  br i1 %124, label %125, label %145

125:                                              ; preds = %116
  %126 = load %struct.book*, %struct.book** %9, align 8
  %127 = getelementptr inbounds %struct.book, %struct.book* %126, i32 0, i32 1
  %128 = load i32, i32* %3, align 4
  %129 = sext i32 %128 to i64
  %130 = getelementptr inbounds [27 x i8], [27 x i8]* %127, i64 0, i64 %129
  %131 = load i8, i8* %130, align 1
  %132 = sext i8 %131 to i32
  %133 = load i8, i8* %7, align 1
  %134 = sext i8 %133 to i32
  %135 = icmp eq i32 %132, %134
  br i1 %135, label %136, label %141

136:                                              ; preds = %125
  %137 = load %struct.book*, %struct.book** %9, align 8
  %138 = getelementptr inbounds %struct.book, %struct.book* %137, i32 0, i32 0
  %139 = load i32, i32* %138, align 8
  %140 = call i32 (i8*, ...) @printf(i8* getelementptr inbounds ([4 x i8], [4 x i8]* @.str.3, i64 0, i64 0), i32 %139)
  br label %141

141:                                              ; preds = %136, %125
  br label %142

142:                                              ; preds = %141
  %143 = load i32, i32* %3, align 4
  %144 = add nsw i32 %143, 1
  store i32 %144, i32* %3, align 4
  br label %116

145:                                              ; preds = %116
  %146 = load %struct.book*, %struct.book** %9, align 8
  %147 = getelementptr inbounds %struct.book, %struct.book* %146, i32 0, i32 2
  %148 = load %struct.book*, %struct.book** %147, align 8
  store %struct.book* %148, %struct.book** %9, align 8
  br label %112

149:                                              ; preds = %112
  ret void
}

declare dso_local i32 @__isoc99_scanf(i8*, ...) #1

; Function Attrs: nounwind
declare dso_local noalias i8* @malloc(i64) #2

declare dso_local i32 @printf(i8*, ...) #1


!llvm.module.flags = !{!0}
!llvm.ident = !{!1}

!0 = !{i32 1, !"wchar_size", i32 4}
!1 = !{!"clang version 10.0.0-4ubuntu1 "}
